target datalayout = "e-m:e-p270:32:32-p271:32:32-p272:64:64-i64:64-i128:128-f80:128-n8:16:32:64-S128"
target triple = "x86_64-pc-linux-gnu"

@hf_gryphon_ldf_info_pv = internal global i32 0, align 4
@hf_gryphon_ldf_info_lv = internal global i32 0, align 4
@hf_gryphon_ldf_bitrate = internal global i32 0, align 4
@.str.1098 = private unnamed_addr constant [10 x i8] c"%.3f Kbps\00", align 1

; Function Attrs: null_pointer_is_valid sspstrong uwtable
define internal i32 @resp_get_ldf_info(ptr noundef %0, i32 noundef %1, ptr noundef %2) #0 {
  %4 = alloca ptr, align 8
  %5 = alloca i32, align 4
  %6 = alloca ptr, align 8
  %7 = alloca i32, align 4
  %8 = alloca float, align 4
  store ptr %0, ptr %4, align 8
  store i32 %1, ptr %5, align 4
  store ptr %2, ptr %6, align 8
  call void @llvm.lifetime.start.p0(i64 4, ptr %7) #7
  call void @llvm.lifetime.start.p0(i64 4, ptr %8) #7
  %9 = load ptr, ptr %6, align 8
  %10 = load i32, ptr @hf_gryphon_ldf_info_pv, align 4
  %11 = load ptr, ptr %4, align 8
  %12 = load i32, ptr %5, align 4
  %13 = call ptr @proto_tree_add_item(ptr noundef %9, i32 noundef %10, ptr noundef %11, i32 noundef %12, i32 noundef 16, i32 noundef 0)
  %14 = load i32, ptr %5, align 4
  %15 = add i32 %14, 16
  store i32 %15, ptr %5, align 4
  %16 = load ptr, ptr %6, align 8
  %17 = load i32, ptr @hf_gryphon_ldf_info_lv, align 4
  %18 = load ptr, ptr %4, align 8
  %19 = load i32, ptr %5, align 4
  %20 = call ptr @proto_tree_add_item(ptr noundef %16, i32 noundef %17, ptr noundef %18, i32 noundef %19, i32 noundef 16, i32 noundef 0)
  %21 = load i32, ptr %5, align 4
  %22 = add i32 %21, 16
  store i32 %22, ptr %5, align 4
  %23 = load ptr, ptr %4, align 8
  %24 = load i32, ptr %5, align 4
  %25 = call i32 @tvb_get_ntohl(ptr noundef %23, i32 noundef %24)
  store i32 %25, ptr %7, align 4
  %26 = load i32, ptr %7, align 4
  %27 = uitofp i32 %26 to float
  %28 = fdiv float %27, 1.000000e+03
  store float %28, ptr %8, align 4
  %29 = load ptr, ptr %6, align 8
  %30 = load i32, ptr @hf_gryphon_ldf_bitrate, align 4
  %31 = load ptr, ptr %4, align 8
  %32 = load i32, ptr %5, align 4
  %33 = load float, ptr %8, align 4
  %34 = load float, ptr %8, align 4
  %35 = fpext float %34 to double
  %36 = call ptr (ptr, i32, ptr, i32, i32, float, ptr, ...) @proto_tree_add_float_format_value(ptr noundef %29, i32 noundef %30, ptr noundef %31, i32 noundef %32, i32 noundef 4, float noundef %33, ptr noundef @.str.1098, double noundef %35)
  %37 = load i32, ptr %5, align 4
  %38 = add i32 %37, 4
  store i32 %38, ptr %5, align 4
  %39 = load i32, ptr %5, align 4
  call void @llvm.lifetime.end.p0(i64 4, ptr %8) #7
  call void @llvm.lifetime.end.p0(i64 4, ptr %7) #7
  ret i32 %39
}