; Function Attrs: null_pointer_is_valid sspstrong uwtable
define internal fastcc void @resp_get_ldf_info(ptr noundef %0, ptr noundef %1) unnamed_addr #0 {
  %3 = load i32, ptr @hf_gryphon_ldf_info_pv, align 4
  %4 = tail call ptr @proto_tree_add_item(ptr noundef %1, i32 noundef %3, ptr noundef %0, i32 noundef 16, i32 noundef 16, i32 noundef 0)
  %5 = load i32, ptr @hf_gryphon_ldf_info_lv, align 4
  %6 = tail call ptr @proto_tree_add_item(ptr noundef %1, i32 noundef %5, ptr noundef %0, i32 noundef 32, i32 noundef 16, i32 noundef 0)
  %7 = tail call i32 @tvb_get_ntohl(ptr noundef %0, i32 noundef 48)
  %8 = uitofp i32 %7 to float
  %9 = fdiv float %8, 1.000000e+03
  %10 = load i32, ptr @hf_gryphon_ldf_bitrate, align 4
  %11 = fpext float %9 to double
  %12 = tail call ptr (ptr, i32, ptr, i32, i32, float, ptr, ...) @proto_tree_add_float_format_value(ptr noundef %1, i32 noundef %10, ptr noundef %0, i32 noundef 48, i32 noundef 4, float noundef %9, ptr noundef nonnull @.str.1098, double noundef %11)
  ret void
}